; Function Attrs: mustprogress uwtable
define hidden void @_ZN4cvc58internal13FloatingPoint7makeNaNERKNS0_17FloatingPointSizeE(ptr dead_on_unwind noalias writable writeonly sret(%"class.cvc5::internal::FloatingPoint") align 8 captures(none) %0, ptr noundef nonnull align 4 dereferenceable(8) %1) local_unnamed_addr #3 align 2 personality ptr @__gxx_personality_v0 {
  %3 = tail call noalias noundef nonnull dereferenceable(64) ptr @_Znwm(i64 noundef 64) #17
  invoke void @_ZN4cvc58internal20FloatingPointLiteralC1ERKNS0_17FloatingPointSizeENS1_16SpecialConstKindE(ptr noundef nonnull align 8 dereferenceable(64) %3, ptr noundef nonnull align 4 dereferenceable(8) %1, i32 noundef 1)
          to label %4 unwind label %5

4:                                                ; preds = %2
  store ptr %3, ptr %0, align 8, !tbaa !3
  ret void

5:                                                ; preds = %2
  %6 = landingpad { ptr, i32 }
          cleanup
  tail call void @_ZdlPvm(ptr noundef nonnull %3, i64 noundef 64) #18
  resume { ptr, i32 } %6
}